; Function Attrs: mustprogress nofree norecurse nosync nounwind willreturn memory(argmem: readwrite) uwtable
define range(i32 -173, 1) i32 @wc_Sha512_224Copy(ptr noundef readonly captures(address_is_null) %0, ptr noundef writeonly captures(address_is_null) %1) local_unnamed_addr #5 {
  %3 = icmp eq ptr %0, null
  %4 = icmp eq ptr %1, null
  %or.cond.i = or i1 %3, %4
  br i1 %or.cond.i, label %wc_Sha512Copy.exit, label %5

5:                                                ; preds = %2
  tail call void @llvm.memcpy.p0.p0.i64(ptr noundef nonnull align 8 dereferenceable(224) %1, ptr noundef nonnull readonly align 8 dereferenceable(224) %0, i64 224, i1 false)
  br label %wc_Sha512Copy.exit

wc_Sha512Copy.exit:                               ; preds = %2, %5
  %.0.i = phi i32 [ 0, %5 ], [ -173, %2 ]
  ret i32 %.0.i
}